; ModuleID = '3/2037.c'
source_filename = "3/2037.c"
target datalayout = "e-m:e-p270:32:32-p271:32:32-p272:64:64-i64:64-f80:128-n8:16:32:64-S128"
target triple = "x86_64-pc-linux-gnu"

@.str = private unnamed_addr constant [6 x i8] c"%d%d\0A\00", align 1
@.str.1 = private unnamed_addr constant [3 x i8] c"%d\00", align 1
@.str.2 = private unnamed_addr constant [3 x i8] c"no\00", align 1
@.str.3 = private unnamed_addr constant [4 x i8] c"yes\00", align 1

; Function Attrs: noinline nounwind uwtable
define dso_local i32 @main() #0 {
  %1 = alloca i32, align 4
  %2 = alloca i32, align 4
  %3 = alloca i32, align 4
  %4 = alloca i32, align 4
  %5 = alloca i32, align 4
  %6 = alloca i32, align 4
  %7 = alloca i32, align 4
  %8 = alloca i8*, align 8
  %9 = alloca i64, align 8
  %10 = alloca i64, align 8
  %11 = alloca i64, align 8
  store i32 0, i32* %1, align 4
  store i32 0, i32* %7, align 4
  %12 = call i32 (i8*, ...) @__isoc99_scanf(i8* getelementptr inbounds ([6 x i8], [6 x i8]* @.str, i64 0, i64 0), i32* %2, i32* %4)
  %13 = load i32, i32* %2, align 4
  %14 = zext i32 %13 to i64
  %15 = load i32, i32* %2, align 4
  %16 = zext i32 %15 to i64
  %17 = call i8* @llvm.stacksave()
  store i8* %17, i8** %8, align 8
  %18 = mul nuw i64 %14, %16
  %19 = alloca i32, i64 %18, align 16
  store i64 %14, i64* %9, align 8
  store i64 %16, i64* %10, align 8
  %20 = load i32, i32* %2, align 4
  %21 = zext i32 %20 to i64
  %22 = alloca i32, i64 %21, align 16
  store i64 %21, i64* %11, align 8
  store i32 0, i32* %3, align 4
  br label %23

23:                                               ; preds = %32, %0
  %24 = load i32, i32* %3, align 4
  %25 = load i32, i32* %2, align 4
  %26 = icmp slt i32 %24, %25
  br i1 %26, label %27, label %35

27:                                               ; preds = %23
  %28 = load i32, i32* %3, align 4
  %29 = sext i32 %28 to i64
  %30 = getelementptr inbounds i32, i32* %22, i64 %29
  %31 = call i32 (i8*, ...) @__isoc99_scanf(i8* getelementptr inbounds ([3 x i8], [3 x i8]* @.str.1, i64 0, i64 0), i32* %30)
  br label %32

32:                                               ; preds = %27
  %33 = load i32, i32* %3, align 4
  %34 = add nsw i32 %33, 1
  store i32 %34, i32* %3, align 4
  br label %23

35:                                               ; preds = %23
  store i32 0, i32* %5, align 4
  br label %36

36:                                               ; preds = %94, %35
  %37 = load i32, i32* %5, align 4
  %38 = load i32, i32* %2, align 4
  %39 = icmp slt i32 %37, %38
  br i1 %39, label %40, label %97

40:                                               ; preds = %36
  store i32 0, i32* %6, align 4
  br label %41

41:                                               ; preds = %76, %40
  %42 = load i32, i32* %6, align 4
  %43 = load i32, i32* %2, align 4
  %44 = icmp slt i32 %42, %43
  br i1 %44, label %45, label %79

45:                                               ; preds = %41
  %46 = load i32, i32* %5, align 4
  %47 = sext i32 %46 to i64
  %48 = getelementptr inbounds i32, i32* %22, i64 %47
  %49 = load i32, i32* %48, align 4
  %50 = load i32, i32* %6, align 4
  %51 = sext i32 %50 to i64
  %52 = getelementptr inbounds i32, i32* %22, i64 %51
  %53 = load i32, i32* %52, align 4
  %54 = add nsw i32 %49, %53
  %55 = load i32, i32* %5, align 4
  %56 = sext i32 %55 to i64
  %57 = mul nsw i64 %56, %16
  %58 = getelementptr inbounds i32, i32* %19, i64 %57
  %59 = load i32, i32* %6, align 4
  %60 = sext i32 %59 to i64
  %61 = getelementptr inbounds i32, i32* %58, i64 %60
  store i32 %54, i32* %61, align 4
  %62 = load i32, i32* %5, align 4
  %63 = sext i32 %62 to i64
  %64 = mul nsw i64 %63, %16
  %65 = getelementptr inbounds i32, i32* %19, i64 %64
  %66 = load i32, i32* %6, align 4
  %67 = sext i32 %66 to i64
  %68 = getelementptr inbounds i32, i32* %65, i64 %67
  %69 = load i32, i32* %68, align 4
  %70 = load i32, i32* %4, align 4
  %71 = icmp eq i32 %69, %70
  br i1 %71, label %72, label %75

72:                                               ; preds = %45
  %73 = load i32, i32* %7, align 4
  %74 = add nsw i32 %73, 1
  store i32 %74, i32* %7, align 4
  br label %75

75:                                               ; preds = %72, %45
  br label %76

76:                                               ; preds = %75
  %77 = load i32, i32* %6, align 4
  %78 = add nsw i32 %77, 1
  store i32 %78, i32* %6, align 4
  br label %41

79:                                               ; preds = %41
  %80 = load i32, i32* %5, align 4
  %81 = sext i32 %80 to i64
  %82 = mul nsw i64 %81, %16
  %83 = getelementptr inbounds i32, i32* %19, i64 %82
  %84 = load i32, i32* %6, align 4
  %85 = sext i32 %84 to i64
  %86 = getelementptr inbounds i32, i32* %83, i64 %85
  %87 = load i32, i32* %86, align 4
  %88 = load i32, i32* %4, align 4
  %89 = icmp eq i32 %87, %88
  br i1 %89, label %90, label %93

90:                                               ; preds = %79
  %91 = load i32, i32* %7, align 4
  %92 = add nsw i32 %91, 1
  store i32 %92, i32* %7, align 4
  br label %93

93:                                               ; preds = %90, %79
  br label %94

94:                                               ; preds = %93
  %95 = load i32, i32* %5, align 4
  %96 = add nsw i32 %95, 1
  store i32 %96, i32* %5, align 4
  br label %36

97:                                               ; preds = %36
  %98 = load i32, i32* %7, align 4
  %99 = icmp eq i32 %98, 0
  br i1 %99, label %100, label %102

100:                                              ; preds = %97
  %101 = call i32 (i8*, ...) @printf(i8* getelementptr inbounds ([3 x i8], [3 x i8]* @.str.2, i64 0, i64 0))
  br label %104

102:                                              ; preds = %97
  %103 = call i32 (i8*, ...) @printf(i8* getelementptr inbounds ([4 x i8], [4 x i8]* @.str.3, i64 0, i64 0))
  br label %104

104:                                              ; preds = %102, %100
  store i32 0, i32* %1, align 4
  %105 = load i8*, i8** %8, align 8
  call void @llvm.stackrestore(i8* %105)
  %106 = load i32, i32* %1, align 4
  ret i32 %106
}

declare dso_local i32 @__isoc99_scanf(i8*, ...) #1

; Function Attrs: nounwind
declare i8* @llvm.stacksave() #2

declare dso_local i32 @printf(i8*, ...) #1

; Function Attrs: nounwind
declare void @llvm.stackrestore(i8*) #2


!llvm.module.flags = !{!0}
!llvm.ident = !{!1}

!0 = !{i32 1, !"wchar_size", i32 4}
!1 = !{!"clang version 10.0.0-4ubuntu1 "}
